; Function Attrs: nounwind uwtable
define internal range(i32 -1, 1) i32 @H5P__ocpy_reg_prop(ptr noundef %0) #0 {
  %2 = load i8, ptr @H5P_init_g, align 1, !tbaa !3, !range !7, !noundef !8
  %3 = trunc nuw i8 %2 to i1
  %4 = load i8, ptr @H5_libterm_g, align 1, !range !7
  %5 = trunc nuw i8 %4 to i1
  %6 = xor i1 %5, true
  %7 = select i1 %3, i1 true, i1 %6
  br i1 %7, label %8, label %20, !prof !9

8:                                                ; preds = %1
  %9 = tail call i32 @H5P__register_real(ptr noundef %0, ptr noundef nonnull @.str.8, i64 noundef 4, ptr noundef nonnull @H5O_def_ocpy_option_g, ptr noundef null, ptr noundef null, ptr noundef null, ptr noundef nonnull @H5P__encode_unsigned, ptr noundef nonnull @H5P__decode_unsigned, ptr noundef null, ptr noundef null, ptr noundef null, ptr noundef null) #8
  %10 = icmp slt i32 %9, 0
  br i1 %10, label %.sink.split, label %11

11:                                               ; preds = %8
  %12 = tail call i32 @H5P__register_real(ptr noundef %0, ptr noundef nonnull @.str.13, i64 noundef 8, ptr noundef nonnull @H5O_def_merge_comm_dtype_list_g, ptr noundef null, ptr noundef nonnull @H5P__ocpy_merge_comm_dt_list_set, ptr noundef nonnull @H5P__ocpy_merge_comm_dt_list_get, ptr noundef nonnull @H5P__ocpy_merge_comm_dt_list_enc, ptr noundef nonnull @H5P__ocpy_merge_comm_dt_list_dec, ptr noundef nonnull @H5P__ocpy_merge_comm_dt_list_del, ptr noundef nonnull @H5P__ocpy_merge_comm_dt_list_copy, ptr noundef nonnull @H5P__ocpy_merge_comm_dt_list_cmp, ptr noundef nonnull @H5P__ocpy_merge_comm_dt_list_close) #8
  %13 = icmp slt i32 %12, 0
  br i1 %13, label %.sink.split, label %14

14:                                               ; preds = %11
  %15 = tail call i32 @H5P__register_real(ptr noundef %0, ptr noundef nonnull @.str.20, i64 noundef 16, ptr noundef nonnull @H5O_def_mcdt_cb_g, ptr noundef null, ptr noundef null, ptr noundef null, ptr noundef null, ptr noundef null, ptr noundef null, ptr noundef null, ptr noundef null, ptr noundef null) #8
  %16 = icmp slt i32 %15, 0
  br i1 %16, label %.sink.split, label %20

.sink.split:                                      ; preds = %14, %11, %8
  %.sink = phi i32 [ 157, %8 ], [ 166, %11 ], [ 173, %14 ]
  %17 = load i64, ptr @H5E_PLIST_g, align 8, !tbaa !10
  %18 = load i64, ptr @H5E_CANTINSERT_g, align 8, !tbaa !10
  %19 = tail call i32 (ptr, ptr, i32, i64, i64, ptr, ...) @H5E_printf_stack(ptr noundef nonnull @.str.2, ptr noundef nonnull @__func__.H5P__ocpy_reg_prop, i32 noundef %.sink, i64 noundef %17, i64 noundef %18, ptr noundef nonnull @.str.23) #8
  br label %20

20:                                               ; preds = %.sink.split, %14, %1
  %.0 = phi i32 [ 0, %14 ], [ 0, %1 ], [ -1, %.sink.split ]
  ret i32 %.0
}